target datalayout = "e-m:e-p270:32:32-p271:32:32-p272:64:64-i64:64-i128:128-f80:128-n8:16:32:64-S128"
target triple = "x86_64-pc-linux-gnu"

%struct.SDL_Camera = type { ptr, ptr, i32, %struct.SDL_AtomicInt, ptr, ptr, ptr, ptr, i32, %struct.SDL_CameraSpec, %struct.SDL_CameraSpec, i32, ptr, i32, i64, i64, ptr, ptr, [8 x %struct.SurfaceList], %struct.SurfaceList, %struct.SurfaceList, %struct.SurfaceList, ptr, i32, i8, %struct.SDL_AtomicInt, %struct.SDL_AtomicInt, ptr, i32, i32, ptr }
%struct.SDL_CameraSpec = type { i32, i32, i32, i32, i32, i32 }
%struct.SurfaceList = type { ptr, i64, ptr }
%struct.SDL_AtomicInt = type { i32 }
%struct.SDL_PrivateCameraData = type { i32, i32, i32, ptr, i32 }
%struct.buffer = type { ptr, i64, i32 }

@.str.19 = private unnamed_addr constant [7 x i8] c"munmap\00", align 1

; Function Attrs: nounwind uwtable
define internal i32 @xioctl(i32 noundef %0, i32 noundef %1, ptr noundef %2) #0 {
  %4 = alloca i32, align 4
  %5 = alloca i32, align 4
  %6 = alloca ptr, align 8
  %7 = alloca i32, align 4
  store i32 %0, ptr %4, align 4
  store i32 %1, ptr %5, align 4
  store ptr %2, ptr %6, align 8
  call void @llvm.lifetime.start.p0(i64 4, ptr %7) #8
  br label %8

8:                                                ; preds = %21, %3
  %9 = load i32, ptr %4, align 4
  %10 = load i32, ptr %5, align 4
  %11 = sext i32 %10 to i64
  %12 = load ptr, ptr %6, align 8
  %13 = call i32 (i32, i64, ...) @ioctl(i32 noundef %9, i64 noundef %11, ptr noundef %12) #8
  store i32 %13, ptr %7, align 4
  br label %14

14:                                               ; preds = %8
  %15 = load i32, ptr %7, align 4
  %16 = icmp eq i32 %15, -1
  br i1 %16, label %17, label %21

17:                                               ; preds = %14
  %18 = call ptr @__errno_location() #9
  %19 = load i32, ptr %18, align 4
  %20 = icmp eq i32 %19, 4
  br label %21

21:                                               ; preds = %17, %14
  %22 = phi i1 [ false, %14 ], [ %20, %17 ]
  br i1 %22, label %8, label %23, !llvm.loop !19

23:                                               ; preds = %21
  %24 = load i32, ptr %7, align 4
  call void @llvm.lifetime.end.p0(i64 4, ptr %7) #8
  ret i32 %24
}

; Function Attrs: nounwind uwtable
define internal void @V4L2_CloseDevice(ptr noundef %0) #0 {
  %2 = alloca ptr, align 8
  %3 = alloca i32, align 4
  %4 = alloca i32, align 4
  %5 = alloca i32, align 4
  %6 = alloca i32, align 4
  %7 = alloca i32, align 4
  store ptr %0, ptr %2, align 8
  %8 = load ptr, ptr %2, align 8
  %9 = icmp ne ptr %8, null
  br i1 %9, label %11, label %10

10:                                               ; preds = %1
  br label %136

11:                                               ; preds = %1
  %12 = load ptr, ptr %2, align 8
  %13 = getelementptr inbounds nuw %struct.SDL_Camera, ptr %12, i32 0, i32 30
  %14 = load ptr, ptr %13, align 8
  %15 = icmp ne ptr %14, null
  br i1 %15, label %16, label %136

16:                                               ; preds = %11
  call void @llvm.lifetime.start.p0(i64 4, ptr %3) #8
  %17 = load ptr, ptr %2, align 8
  %18 = getelementptr inbounds nuw %struct.SDL_Camera, ptr %17, i32 0, i32 30
  %19 = load ptr, ptr %18, align 8
  %20 = getelementptr inbounds nuw %struct.SDL_PrivateCameraData, ptr %19, i32 0, i32 1
  %21 = load i32, ptr %20, align 4
  store i32 %21, ptr %3, align 4
  call void @llvm.lifetime.start.p0(i64 4, ptr %4) #8
  %22 = load ptr, ptr %2, align 8
  %23 = getelementptr inbounds nuw %struct.SDL_Camera, ptr %22, i32 0, i32 30
  %24 = load ptr, ptr %23, align 8
  %25 = getelementptr inbounds nuw %struct.SDL_PrivateCameraData, ptr %24, i32 0, i32 0
  %26 = load i32, ptr %25, align 8
  store i32 %26, ptr %4, align 4
  %27 = load i32, ptr %3, align 4
  %28 = icmp eq i32 %27, 2
  br i1 %28, label %32, label %29

29:                                               ; preds = %16
  %30 = load i32, ptr %3, align 4
  %31 = icmp eq i32 %30, 3
  br i1 %31, label %32, label %35

32:                                               ; preds = %29, %16
  call void @llvm.lifetime.start.p0(i64 4, ptr %5) #8
  store i32 1, ptr %5, align 4
  %33 = load i32, ptr %4, align 4
  %34 = call i32 @xioctl(i32 noundef %33, i32 noundef 1074026003, ptr noundef %5)
  call void @llvm.lifetime.end.p0(i64 4, ptr %5) #8
  br label %35

35:                                               ; preds = %32, %29
  %36 = load ptr, ptr %2, align 8
  %37 = getelementptr inbounds nuw %struct.SDL_Camera, ptr %36, i32 0, i32 30
  %38 = load ptr, ptr %37, align 8
  %39 = getelementptr inbounds nuw %struct.SDL_PrivateCameraData, ptr %38, i32 0, i32 3
  %40 = load ptr, ptr %39, align 8
  %41 = icmp ne ptr %40, null
  br i1 %41, label %42, label %124

42:                                               ; preds = %35
  %43 = load i32, ptr %3, align 4
  switch i32 %43, label %118 [
    i32 0, label %118
    i32 1, label %44
    i32 2, label %53
    i32 3, label %93
  ]

44:                                               ; preds = %42
  %45 = load ptr, ptr %2, align 8
  %46 = getelementptr inbounds nuw %struct.SDL_Camera, ptr %45, i32 0, i32 30
  %47 = load ptr, ptr %46, align 8
  %48 = getelementptr inbounds nuw %struct.SDL_PrivateCameraData, ptr %47, i32 0, i32 3
  %49 = load ptr, ptr %48, align 8
  %50 = getelementptr inbounds %struct.buffer, ptr %49, i64 0
  %51 = getelementptr inbounds nuw %struct.buffer, ptr %50, i32 0, i32 0
  %52 = load ptr, ptr %51, align 8
  call void @SDL_free_REAL(ptr noundef %52)
  br label %118

53:                                               ; preds = %42
  call void @llvm.lifetime.start.p0(i64 4, ptr %6) #8
  store i32 0, ptr %6, align 4
  br label %54

54:                                               ; preds = %89, %53
  %55 = load i32, ptr %6, align 4
  %56 = load ptr, ptr %2, align 8
  %57 = getelementptr inbounds nuw %struct.SDL_Camera, ptr %56, i32 0, i32 30
  %58 = load ptr, ptr %57, align 8
  %59 = getelementptr inbounds nuw %struct.SDL_PrivateCameraData, ptr %58, i32 0, i32 2
  %60 = load i32, ptr %59, align 8
  %61 = icmp slt i32 %55, %60
  br i1 %61, label %63, label %62

62:                                               ; preds = %54
  call void @llvm.lifetime.end.p0(i64 4, ptr %6) #8
  br label %92

63:                                               ; preds = %54
  %64 = load ptr, ptr %2, align 8
  %65 = getelementptr inbounds nuw %struct.SDL_Camera, ptr %64, i32 0, i32 30
  %66 = load ptr, ptr %65, align 8
  %67 = getelementptr inbounds nuw %struct.SDL_PrivateCameraData, ptr %66, i32 0, i32 3
  %68 = load ptr, ptr %67, align 8
  %69 = load i32, ptr %6, align 4
  %70 = sext i32 %69 to i64
  %71 = getelementptr inbounds %struct.buffer, ptr %68, i64 %70
  %72 = getelementptr inbounds nuw %struct.buffer, ptr %71, i32 0, i32 0
  %73 = load ptr, ptr %72, align 8
  %74 = load ptr, ptr %2, align 8
  %75 = getelementptr inbounds nuw %struct.SDL_Camera, ptr %74, i32 0, i32 30
  %76 = load ptr, ptr %75, align 8
  %77 = getelementptr inbounds nuw %struct.SDL_PrivateCameraData, ptr %76, i32 0, i32 3
  %78 = load ptr, ptr %77, align 8
  %79 = load i32, ptr %6, align 4
  %80 = sext i32 %79 to i64
  %81 = getelementptr inbounds %struct.buffer, ptr %78, i64 %80
  %82 = getelementptr inbounds nuw %struct.buffer, ptr %81, i32 0, i32 1
  %83 = load i64, ptr %82, align 8
  %84 = call i32 @munmap(ptr noundef %73, i64 noundef %83) #8
  %85 = icmp eq i32 %84, -1
  br i1 %85, label %86, label %88

86:                                               ; preds = %63
  %87 = call zeroext i1 (ptr, ...) @SDL_SetError_REAL(ptr noundef @.str.19)
  br label %88

88:                                               ; preds = %86, %63
  br label %89

89:                                               ; preds = %88
  %90 = load i32, ptr %6, align 4
  %91 = add nsw i32 %90, 1
  store i32 %91, ptr %6, align 4
  br label %54, !llvm.loop !7

92:                                               ; preds = %62
  br label %118

93:                                               ; preds = %42
  call void @llvm.lifetime.start.p0(i64 4, ptr %7) #8
  store i32 0, ptr %7, align 4
  br label %94

94:                                               ; preds = %114, %93
  %95 = load i32, ptr %7, align 4
  %96 = load ptr, ptr %2, align 8
  %97 = getelementptr inbounds nuw %struct.SDL_Camera, ptr %96, i32 0, i32 30
  %98 = load ptr, ptr %97, align 8
  %99 = getelementptr inbounds nuw %struct.SDL_PrivateCameraData, ptr %98, i32 0, i32 2
  %100 = load i32, ptr %99, align 8
  %101 = icmp slt i32 %95, %100
  br i1 %101, label %103, label %102

102:                                              ; preds = %94
  call void @llvm.lifetime.end.p0(i64 4, ptr %7) #8
  br label %117

103:                                              ; preds = %94
  %104 = load ptr, ptr %2, align 8
  %105 = getelementptr inbounds nuw %struct.SDL_Camera, ptr %104, i32 0, i32 30
  %106 = load ptr, ptr %105, align 8
  %107 = getelementptr inbounds nuw %struct.SDL_PrivateCameraData, ptr %106, i32 0, i32 3
  %108 = load ptr, ptr %107, align 8
  %109 = load i32, ptr %7, align 4
  %110 = sext i32 %109 to i64
  %111 = getelementptr inbounds %struct.buffer, ptr %108, i64 %110
  %112 = getelementptr inbounds nuw %struct.buffer, ptr %111, i32 0, i32 0
  %113 = load ptr, ptr %112, align 8
  call void @SDL_free_REAL(ptr noundef %113)
  br label %114

114:                                              ; preds = %103
  %115 = load i32, ptr %7, align 4
  %116 = add nsw i32 %115, 1
  store i32 %116, ptr %7, align 4
  br label %94, !llvm.loop !8

117:                                              ; preds = %102
  br label %118

118:                                              ; preds = %42, %117, %92, %44, %42
  %119 = load ptr, ptr %2, align 8
  %120 = getelementptr inbounds nuw %struct.SDL_Camera, ptr %119, i32 0, i32 30
  %121 = load ptr, ptr %120, align 8
  %122 = getelementptr inbounds nuw %struct.SDL_PrivateCameraData, ptr %121, i32 0, i32 3
  %123 = load ptr, ptr %122, align 8
  call void @SDL_free_REAL(ptr noundef %123)
  br label %124

124:                                              ; preds = %118, %35
  %125 = load i32, ptr %4, align 4
  %126 = icmp ne i32 %125, -1
  br i1 %126, label %127, label %130

127:                                              ; preds = %124
  %128 = load i32, ptr %4, align 4
  %129 = call i32 @close(i32 noundef %128)
  br label %130

130:                                              ; preds = %127, %124
  %131 = load ptr, ptr %2, align 8
  %132 = getelementptr inbounds nuw %struct.SDL_Camera, ptr %131, i32 0, i32 30
  %133 = load ptr, ptr %132, align 8
  call void @SDL_free_REAL(ptr noundef %133)
  %134 = load ptr, ptr %2, align 8
  %135 = getelementptr inbounds nuw %struct.SDL_Camera, ptr %134, i32 0, i32 30
  store ptr null, ptr %135, align 8
  call void @llvm.lifetime.end.p0(i64 4, ptr %4) #8
  call void @llvm.lifetime.end.p0(i64 4, ptr %3) #8
  br label %136

136:                                              ; preds = %10, %130, %11
  ret void
}