; Function Attrs: nounwind uwtable
define internal void @V4L2_CloseDevice(ptr noundef captures(address_is_null) %0) #1 {
  %2 = alloca i32, align 4
  %.not = icmp eq ptr %0, null
  br i1 %.not, label %67, label %3

3:                                                ; preds = %1
  %4 = getelementptr inbounds nuw i8, ptr %0, i64 464
  %5 = load ptr, ptr %4, align 8
  %.not32 = icmp eq ptr %5, null
  br i1 %.not32, label %67, label %6

6:                                                ; preds = %3
  %7 = getelementptr inbounds nuw i8, ptr %5, i64 4
  %8 = load i32, ptr %7, align 4
  %9 = load i32, ptr %5, align 8
  %10 = and i32 %8, -2
  %or.cond = icmp eq i32 %10, 2
  br i1 %or.cond, label %11, label %19

11:                                               ; preds = %6
  call void @llvm.lifetime.start.p0(i64 4, ptr nonnull %2) #11
  store i32 1, ptr %2, align 4
  br label %12

12:                                               ; preds = %15, %11
  %13 = call i32 (i32, i64, ...) @ioctl(i32 noundef %9, i64 noundef 1074026003, ptr noundef nonnull %2) #11
  %14 = icmp eq i32 %13, -1
  br i1 %14, label %15, label %xioctl.exit

15:                                               ; preds = %12
  %16 = tail call ptr @__errno_location() #12
  %17 = load i32, ptr %16, align 4
  %18 = icmp eq i32 %17, 4
  br i1 %18, label %12, label %xioctl.exit, !llvm.loop !5

xioctl.exit:                                      ; preds = %12, %15
  call void @llvm.lifetime.end.p0(i64 4, ptr nonnull %2) #11
  %.pre = load ptr, ptr %4, align 8
  br label %19

19:                                               ; preds = %6, %xioctl.exit
  %20 = phi ptr [ %5, %6 ], [ %.pre, %xioctl.exit ]
  %21 = getelementptr inbounds nuw i8, ptr %20, i64 16
  %22 = load ptr, ptr %21, align 8
  %.not33 = icmp eq ptr %22, null
  br i1 %.not33, label %62, label %23

23:                                               ; preds = %19
  switch i32 %8, label %.loopexit [
    i32 3, label %.preheader
    i32 1, label %30
    i32 2, label %.preheader35
  ]

.preheader35:                                     ; preds = %23
  %24 = getelementptr inbounds nuw i8, ptr %20, i64 8
  %25 = load i32, ptr %24, align 8
  %26 = icmp sgt i32 %25, 0
  br i1 %26, label %.lr.ph, label %.loopexit

.preheader:                                       ; preds = %23
  %27 = getelementptr inbounds nuw i8, ptr %20, i64 8
  %28 = load i32, ptr %27, align 8
  %29 = icmp sgt i32 %28, 0
  br i1 %29, label %.lr.ph39, label %.loopexit

30:                                               ; preds = %23
  %31 = load ptr, ptr %22, align 8
  call void @SDL_free_REAL(ptr noundef %31) #11
  %.pre45 = load ptr, ptr %4, align 8
  br label %.loopexit

.lr.ph:                                           ; preds = %.preheader35, %43
  %indvars.iv = phi i64 [ %indvars.iv.next, %43 ], [ 0, %.preheader35 ]
  %32 = phi ptr [ %44, %43 ], [ %20, %.preheader35 ]
  %33 = getelementptr inbounds nuw i8, ptr %32, i64 16
  %34 = load ptr, ptr %33, align 8
  %35 = getelementptr inbounds nuw %struct.buffer, ptr %34, i64 %indvars.iv
  %36 = load ptr, ptr %35, align 8
  %37 = getelementptr inbounds nuw i8, ptr %35, i64 8
  %38 = load i64, ptr %37, align 8
  %39 = call i32 @munmap(ptr noundef %36, i64 noundef %38) #11
  %40 = icmp eq i32 %39, -1
  br i1 %40, label %41, label %43

41:                                               ; preds = %.lr.ph
  %42 = call zeroext i1 (ptr, ...) @SDL_SetError_REAL(ptr noundef nonnull @.str.19) #11
  br label %43

43:                                               ; preds = %.lr.ph, %41
  %indvars.iv.next = add nuw nsw i64 %indvars.iv, 1
  %44 = load ptr, ptr %4, align 8
  %45 = getelementptr inbounds nuw i8, ptr %44, i64 8
  %46 = load i32, ptr %45, align 8
  %47 = sext i32 %46 to i64
  %48 = icmp slt i64 %indvars.iv.next, %47
  br i1 %48, label %.lr.ph, label %.loopexit, !llvm.loop !6

.lr.ph39:                                         ; preds = %.preheader, %.lr.ph39
  %indvars.iv42 = phi i64 [ %indvars.iv.next43, %.lr.ph39 ], [ 0, %.preheader ]
  %49 = phi ptr [ %54, %.lr.ph39 ], [ %20, %.preheader ]
  %50 = getelementptr inbounds nuw i8, ptr %49, i64 16
  %51 = load ptr, ptr %50, align 8
  %52 = getelementptr inbounds nuw %struct.buffer, ptr %51, i64 %indvars.iv42
  %53 = load ptr, ptr %52, align 8
  call void @SDL_free_REAL(ptr noundef %53) #11
  %indvars.iv.next43 = add nuw nsw i64 %indvars.iv42, 1
  %54 = load ptr, ptr %4, align 8
  %55 = getelementptr inbounds nuw i8, ptr %54, i64 8
  %56 = load i32, ptr %55, align 8
  %57 = sext i32 %56 to i64
  %58 = icmp slt i64 %indvars.iv.next43, %57
  br i1 %58, label %.lr.ph39, label %.loopexit, !llvm.loop !7

.loopexit:                                        ; preds = %43, %.lr.ph39, %.preheader35, %.preheader, %30, %23
  %59 = phi ptr [ %20, %.preheader35 ], [ %20, %.preheader ], [ %.pre45, %30 ], [ %20, %23 ], [ %54, %.lr.ph39 ], [ %44, %43 ]
  %60 = getelementptr inbounds nuw i8, ptr %59, i64 16
  %61 = load ptr, ptr %60, align 8
  call void @SDL_free_REAL(ptr noundef %61) #11
  br label %62

62:                                               ; preds = %.loopexit, %19
  %.not34 = icmp eq i32 %9, -1
  br i1 %.not34, label %65, label %63

63:                                               ; preds = %62
  %64 = call i32 @close(i32 noundef %9) #11
  br label %65

65:                                               ; preds = %63, %62
  %66 = load ptr, ptr %4, align 8
  call void @SDL_free_REAL(ptr noundef %66) #11
  store ptr null, ptr %4, align 8
  br label %67

67:                                               ; preds = %1, %65, %3
  ret void
}